; ModuleID = 'source-C-CXX/11/133.c'
source_filename = "source-C-CXX/11/133.c"
target datalayout = "e-m:e-p270:32:32-p271:32:32-p272:64:64-i64:64-f80:128-n8:16:32:64-S128"
target triple = "x86_64-pc-linux-gnu"

@.str = private unnamed_addr constant [3 x i8] c"%d\00", align 1
@.str.1 = private unnamed_addr constant [4 x i8] c"%d\0A\00", align 1

; Function Attrs: nofree nounwind sspstrong uwtable
define dso_local i32 @main(i32 %0, i8** nocapture readnone %1) local_unnamed_addr #0 {
  %3 = alloca [10000 x i32], align 16
  %4 = alloca i32, align 4
  %5 = bitcast [10000 x i32]* %3 to i8*
  call void @llvm.lifetime.start.p0i8(i64 40000, i8* nonnull %5) #3
  %6 = bitcast i32* %4 to i8*
  call void @llvm.lifetime.start.p0i8(i64 4, i8* nonnull %6) #3
  %7 = getelementptr inbounds [10000 x i32], [10000 x i32]* %3, i64 0, i64 0
  br label %8

8:                                                ; preds = %44, %2
  %9 = call i32 (i8*, ...) @__isoc99_scanf(i8* getelementptr inbounds ([3 x i8], [3 x i8]* @.str, i64 0, i64 0), i32* nonnull %4)
  %10 = load i32, i32* %4, align 4, !tbaa !5
  %11 = icmp eq i32 %10, -1
  br i1 %11, label %49, label %12

12:                                               ; preds = %8
  store i32 %10, i32* %7, align 16, !tbaa !5
  br label %13

13:                                               ; preds = %13, %12
  %14 = phi i64 [ %19, %13 ], [ 1, %12 ]
  %15 = getelementptr inbounds [10000 x i32], [10000 x i32]* %3, i64 0, i64 %14
  %16 = call i32 (i8*, ...) @__isoc99_scanf(i8* getelementptr inbounds ([3 x i8], [3 x i8]* @.str, i64 0, i64 0), i32* nonnull %15)
  %17 = load i32, i32* %15, align 4, !tbaa !5
  %18 = icmp eq i32 %17, 0
  %19 = add nuw i64 %14, 1
  br i1 %18, label %20, label %13

20:                                               ; preds = %13
  %21 = load i32, i32* %7, align 16
  %22 = icmp eq i32 %21, 0
  br i1 %22, label %44, label %23

23:                                               ; preds = %20, %39
  %24 = phi i64 [ %40, %39 ], [ 0, %20 ]
  %25 = phi i32 [ %42, %39 ], [ %21, %20 ]
  %26 = phi i32 [ %34, %39 ], [ 0, %20 ]
  %27 = shl nsw i32 %25, 1
  br label %28

28:                                               ; preds = %23, %28
  %29 = phi i64 [ 0, %23 ], [ %35, %28 ]
  %30 = phi i32 [ %21, %23 ], [ %37, %28 ]
  %31 = phi i32 [ %26, %23 ], [ %34, %28 ]
  %32 = icmp eq i32 %30, %27
  %33 = zext i1 %32 to i32
  %34 = add nsw i32 %31, %33
  %35 = add nuw nsw i64 %29, 1
  %36 = getelementptr inbounds [10000 x i32], [10000 x i32]* %3, i64 0, i64 %35
  %37 = load i32, i32* %36, align 4, !tbaa !5
  %38 = icmp eq i32 %37, 0
  br i1 %38, label %39, label %28, !llvm.loop !9

39:                                               ; preds = %28
  %40 = add nuw i64 %24, 1
  %41 = getelementptr inbounds [10000 x i32], [10000 x i32]* %3, i64 0, i64 %40
  %42 = load i32, i32* %41, align 4, !tbaa !5
  %43 = icmp eq i32 %42, 0
  br i1 %43, label %44, label %23, !llvm.loop !11

44:                                               ; preds = %39, %20
  %45 = phi i32 [ 0, %20 ], [ %34, %39 ]
  %46 = call i32 (i8*, ...) @printf(i8* nonnull dereferenceable(1) getelementptr inbounds ([4 x i8], [4 x i8]* @.str.1, i64 0, i64 0), i32 %45)
  %47 = load i32, i32* %4, align 4, !tbaa !5
  %48 = icmp eq i32 %47, -1
  br i1 %48, label %49, label %8, !llvm.loop !12

49:                                               ; preds = %8, %44
  call void @llvm.lifetime.end.p0i8(i64 4, i8* nonnull %6) #3
  call void @llvm.lifetime.end.p0i8(i64 40000, i8* nonnull %5) #3
  ret i32 0
}

; Function Attrs: argmemonly mustprogress nofree nosync nounwind willreturn
declare void @llvm.lifetime.start.p0i8(i64 immarg, i8* nocapture) #1

; Function Attrs: nofree nounwind
declare noundef i32 @__isoc99_scanf(i8* nocapture noundef readonly, ...) local_unnamed_addr #2

; Function Attrs: nofree nounwind
declare noundef i32 @printf(i8* nocapture noundef readonly, ...) local_unnamed_addr #2

; Function Attrs: argmemonly mustprogress nofree nosync nounwind willreturn
declare void @llvm.lifetime.end.p0i8(i64 immarg, i8* nocapture) #1


!llvm.module.flags = !{!0, !1, !2, !3}
!llvm.ident = !{!4}

!0 = !{i32 1, !"wchar_size", i32 4}
!1 = !{i32 7, !"PIC Level", i32 2}
!2 = !{i32 7, !"PIE Level", i32 2}
!3 = !{i32 7, !"uwtable", i32 1}
!4 = !{!"clang version 13.0.0"}
!5 = !{!6, !6, i64 0}
!6 = !{!"int", !7, i64 0}
!7 = !{!"omnipotent char", !8, i64 0}
!8 = !{!"Simple C/C++ TBAA"}
!9 = distinct !{!9, !10}
!10 = !{!"llvm.loop.mustprogress"}
!11 = distinct !{!11, !10}
!12 = distinct !{!12, !10}
